	.arch armv5te
	.eabi_attribute 27, 3
	.fpu vfp
	.eabi_attribute 20, 1
	.eabi_attribute 21, 1
	.eabi_attribute 23, 3
	.eabi_attribute 24, 1
	.eabi_attribute 25, 1
	.eabi_attribute 26, 2
	.eabi_attribute 30, 6
	.eabi_attribute 34, 0
	.eabi_attribute 18, 4
	.file	"LihuiSocial.cpp"
	.text
.Ltext0:
	.cfi_sections	.debug_frame
	.section	.text._Z15LihuiSocialInitv,"ax",%progbits
	.align	2
	.global	_Z15LihuiSocialInitv
	.hidden	_Z15LihuiSocialInitv
	.type	_Z15LihuiSocialInitv, %function
_Z15LihuiSocialInitv:
.LFB0:
	.file 1 "D:\\GitRepo\\BB3OriginalSource\\koa\\third_party\\LihuiSocial\\source\\generic\\LihuiSocial.cpp"
	.loc 1 15 0
	.cfi_startproc
	@ args = 0, pretend = 0, frame = 0
	@ frame_needed = 0, uses_anonymous_args = 0
	stmfd	sp!, {r3, lr}
	.cfi_def_cfa_offset 8
	.cfi_offset 3, -8
	.cfi_offset 14, -4
	.loc 1 17 0
	bl	_Z24LihuiSocialInit_platformv(PLT)
	mov	r3, r0
	.loc 1 18 0
	mov	r0, r3
	ldmfd	sp!, {r3, pc}
	.cfi_endproc
.LFE0:
	.size	_Z15LihuiSocialInitv, .-_Z15LihuiSocialInitv
	.section	.text._Z20LihuiSocialTerminatev,"ax",%progbits
	.align	2
	.global	_Z20LihuiSocialTerminatev
	.hidden	_Z20LihuiSocialTerminatev
	.type	_Z20LihuiSocialTerminatev, %function
_Z20LihuiSocialTerminatev:
.LFB1:
	.loc 1 21 0
	.cfi_startproc
	@ args = 0, pretend = 0, frame = 0
	@ frame_needed = 0, uses_anonymous_args = 0
	stmfd	sp!, {r3, lr}
	.cfi_def_cfa_offset 8
	.cfi_offset 3, -8
	.cfi_offset 14, -4
	.loc 1 23 0
	bl	_Z29LihuiSocialTerminate_platformv(PLT)
	.loc 1 24 0
	ldmfd	sp!, {r3, pc}
	.cfi_endproc
.LFE1:
	.size	_Z20LihuiSocialTerminatev, .-_Z20LihuiSocialTerminatev
	.section	.text.connectToWX,"ax",%progbits
	.align	2
	.global	connectToWX
	.hidden	connectToWX
	.type	connectToWX, %function
connectToWX:
.LFB2:
	.loc 1 27 0
	.cfi_startproc
	@ args = 0, pretend = 0, frame = 0
	@ frame_needed = 0, uses_anonymous_args = 0
	stmfd	sp!, {r3, lr}
	.cfi_def_cfa_offset 8
	.cfi_offset 3, -8
	.cfi_offset 14, -4
	.loc 1 28 0
	bl	_Z20connectToWX_platformv(PLT)
	.loc 1 29 0
	ldmfd	sp!, {r3, pc}
	.cfi_endproc
.LFE2:
	.size	connectToWX, .-connectToWX
	.section	.text.sendMessageOnWX,"ax",%progbits
	.align	2
	.global	sendMessageOnWX
	.hidden	sendMessageOnWX
	.type	sendMessageOnWX, %function
sendMessageOnWX:
.LFB3:
	.loc 1 32 0
	.cfi_startproc
	@ args = 0, pretend = 0, frame = 0
	@ frame_needed = 0, uses_anonymous_args = 0
	stmfd	sp!, {r3, lr}
	.cfi_def_cfa_offset 8
	.cfi_offset 3, -8
	.cfi_offset 14, -4
	.loc 1 33 0
	bl	_Z24sendMessageOnWX_platformv(PLT)
	.loc 1 34 0
	ldmfd	sp!, {r3, pc}
	.cfi_endproc
.LFE3:
	.size	sendMessageOnWX, .-sendMessageOnWX
	.section	.text.isWXLoggedIn,"ax",%progbits
	.align	2
	.global	isWXLoggedIn
	.hidden	isWXLoggedIn
	.type	isWXLoggedIn, %function
isWXLoggedIn:
.LFB4:
	.loc 1 37 0
	.cfi_startproc
	@ args = 0, pretend = 0, frame = 0
	@ frame_needed = 0, uses_anonymous_args = 0
	stmfd	sp!, {r3, lr}
	.cfi_def_cfa_offset 8
	.cfi_offset 3, -8
	.cfi_offset 14, -4
	.loc 1 38 0
	bl	_Z21isWXLoggedIn_platformv(PLT)
	mov	r3, r0
	.loc 1 39 0
	mov	r0, r3
	ldmfd	sp!, {r3, pc}
	.cfi_endproc
.LFE4:
	.size	isWXLoggedIn, .-isWXLoggedIn
	.text
.Letext0:
	.file 2 "e:/marmalade/7.0/s3e/h/s3eTypes.h"
	.section	.note.GNU-stack,"",%progbits
