	.arch armv5te
	.eabi_attribute 27, 3
	.fpu vfp
	.eabi_attribute 20, 1
	.eabi_attribute 21, 1
	.eabi_attribute 23, 3
	.eabi_attribute 24, 1
	.eabi_attribute 25, 1
	.eabi_attribute 26, 2
	.eabi_attribute 30, 6
	.eabi_attribute 34, 0
	.eabi_attribute 18, 4
	.file	"LihuiLB.cpp"
	.text
.Ltext0:
	.cfi_sections	.debug_frame
	.section	.text._Z11LihuiLBInitv,"ax",%progbits
	.align	2
	.global	_Z11LihuiLBInitv
	.hidden	_Z11LihuiLBInitv
	.type	_Z11LihuiLBInitv, %function
_Z11LihuiLBInitv:
.LFB0:
	.file 1 "D:\\10kgratExtension\\ExMarmalade\\LihuiLB\\LihuiLB\\source\\generic\\LihuiLB.cpp"
	.loc 1 15 0
	.cfi_startproc
	@ args = 0, pretend = 0, frame = 0
	@ frame_needed = 0, uses_anonymous_args = 0
	stmfd	sp!, {r3, lr}
	.cfi_def_cfa_offset 8
	.cfi_offset 3, -8
	.cfi_offset 14, -4
	.loc 1 17 0
	bl	_Z20LihuiLBInit_platformv(PLT)
	mov	r3, r0
	.loc 1 18 0
	mov	r0, r3
	ldmfd	sp!, {r3, pc}
	.cfi_endproc
.LFE0:
	.size	_Z11LihuiLBInitv, .-_Z11LihuiLBInitv
	.section	.text._Z16LihuiLBTerminatev,"ax",%progbits
	.align	2
	.global	_Z16LihuiLBTerminatev
	.hidden	_Z16LihuiLBTerminatev
	.type	_Z16LihuiLBTerminatev, %function
_Z16LihuiLBTerminatev:
.LFB1:
	.loc 1 21 0
	.cfi_startproc
	@ args = 0, pretend = 0, frame = 0
	@ frame_needed = 0, uses_anonymous_args = 0
	stmfd	sp!, {r3, lr}
	.cfi_def_cfa_offset 8
	.cfi_offset 3, -8
	.cfi_offset 14, -4
	.loc 1 23 0
	bl	_Z25LihuiLBTerminate_platformv(PLT)
	.loc 1 24 0
	ldmfd	sp!, {r3, pc}
	.cfi_endproc
.LFE1:
	.size	_Z16LihuiLBTerminatev, .-_Z16LihuiLBTerminatev
	.section	.text.initLB,"ax",%progbits
	.align	2
	.global	initLB
	.hidden	initLB
	.type	initLB, %function
initLB:
.LFB2:
	.loc 1 27 0
	.cfi_startproc
	@ args = 0, pretend = 0, frame = 0
	@ frame_needed = 0, uses_anonymous_args = 0
	stmfd	sp!, {r3, lr}
	.cfi_def_cfa_offset 8
	.cfi_offset 3, -8
	.cfi_offset 14, -4
	.loc 1 28 0
	bl	_Z15initLB_platformv(PLT)
	.loc 1 29 0
	ldmfd	sp!, {r3, pc}
	.cfi_endproc
.LFE2:
	.size	initLB, .-initLB
	.section	.text.updateScore,"ax",%progbits
	.align	2
	.global	updateScore
	.hidden	updateScore
	.type	updateScore, %function
updateScore:
.LFB3:
	.loc 1 32 0
	.cfi_startproc
	@ args = 0, pretend = 0, frame = 8
	@ frame_needed = 0, uses_anonymous_args = 0
	str	lr, [sp, #-4]!
	.cfi_def_cfa_offset 4
	.cfi_offset 14, -4
	sub	sp, sp, #12
	.cfi_def_cfa_offset 16
	str	r0, [sp, #4]
	.loc 1 33 0
	ldr	r0, [sp, #4]
	bl	_Z20updateScore_platformi(PLT)
	.loc 1 34 0
	add	sp, sp, #12
	@ sp needed
	ldr	pc, [sp], #4
	.cfi_endproc
.LFE3:
	.size	updateScore, .-updateScore
	.section	.text.receiveRank,"ax",%progbits
	.align	2
	.global	receiveRank
	.hidden	receiveRank
	.type	receiveRank, %function
receiveRank:
.LFB4:
	.loc 1 37 0
	.cfi_startproc
	@ args = 0, pretend = 0, frame = 0
	@ frame_needed = 0, uses_anonymous_args = 0
	stmfd	sp!, {r3, lr}
	.cfi_def_cfa_offset 8
	.cfi_offset 3, -8
	.cfi_offset 14, -4
	.loc 1 38 0
	bl	_Z20receiveRank_platformv(PLT)
	.loc 1 39 0
	ldmfd	sp!, {r3, pc}
	.cfi_endproc
.LFE4:
	.size	receiveRank, .-receiveRank
	.section	.text.getScore,"ax",%progbits
	.align	2
	.global	getScore
	.hidden	getScore
	.type	getScore, %function
getScore:
.LFB5:
	.loc 1 42 0
	.cfi_startproc
	@ args = 0, pretend = 0, frame = 8
	@ frame_needed = 0, uses_anonymous_args = 0
	str	lr, [sp, #-4]!
	.cfi_def_cfa_offset 4
	.cfi_offset 14, -4
	sub	sp, sp, #12
	.cfi_def_cfa_offset 16
	str	r0, [sp, #4]
	.loc 1 43 0
	ldr	r0, [sp, #4]
	bl	_Z17getScore_platformi(PLT)
	mov	r3, r0
	.loc 1 44 0
	mov	r0, r3
	add	sp, sp, #12
	@ sp needed
	ldr	pc, [sp], #4
	.cfi_endproc
.LFE5:
	.size	getScore, .-getScore
	.section	.text.getUserRank,"ax",%progbits
	.align	2
	.global	getUserRank
	.hidden	getUserRank
	.type	getUserRank, %function
getUserRank:
.LFB6:
	.loc 1 47 0
	.cfi_startproc
	@ args = 0, pretend = 0, frame = 0
	@ frame_needed = 0, uses_anonymous_args = 0
	stmfd	sp!, {r3, lr}
	.cfi_def_cfa_offset 8
	.cfi_offset 3, -8
	.cfi_offset 14, -4
	.loc 1 48 0
	bl	_Z20getUserRank_platformv(PLT)
	mov	r3, r0
	.loc 1 49 0
	mov	r0, r3
	ldmfd	sp!, {r3, pc}
	.cfi_endproc
.LFE6:
	.size	getUserRank, .-getUserRank
	.section	.text.getNextWeekLeftSeconds,"ax",%progbits
	.align	2
	.global	getNextWeekLeftSeconds
	.hidden	getNextWeekLeftSeconds
	.type	getNextWeekLeftSeconds, %function
getNextWeekLeftSeconds:
.LFB7:
	.loc 1 52 0
	.cfi_startproc
	@ args = 0, pretend = 0, frame = 0
	@ frame_needed = 0, uses_anonymous_args = 0
	stmfd	sp!, {r3, lr}
	.cfi_def_cfa_offset 8
	.cfi_offset 3, -8
	.cfi_offset 14, -4
	.loc 1 53 0
	bl	_Z31getNextWeekLeftSeconds_platformv(PLT)
	mov	r3, r0
	.loc 1 54 0
	mov	r0, r3
	ldmfd	sp!, {r3, pc}
	.cfi_endproc
.LFE7:
	.size	getNextWeekLeftSeconds, .-getNextWeekLeftSeconds
	.section	.text.notUnlimetedLives,"ax",%progbits
	.align	2
	.global	notUnlimetedLives
	.hidden	notUnlimetedLives
	.type	notUnlimetedLives, %function
notUnlimetedLives:
.LFB8:
	.loc 1 57 0
	.cfi_startproc
	@ args = 0, pretend = 0, frame = 0
	@ frame_needed = 0, uses_anonymous_args = 0
	stmfd	sp!, {r3, lr}
	.cfi_def_cfa_offset 8
	.cfi_offset 3, -8
	.cfi_offset 14, -4
	.loc 1 58 0
	bl	_Z26notUnlimetedLives_platformv(PLT)
	mov	r3, r0
	.loc 1 59 0
	mov	r0, r3
	ldmfd	sp!, {r3, pc}
	.cfi_endproc
.LFE8:
	.size	notUnlimetedLives, .-notUnlimetedLives
	.section	.text.setBeijingTime,"ax",%progbits
	.align	2
	.global	setBeijingTime
	.hidden	setBeijingTime
	.type	setBeijingTime, %function
setBeijingTime:
.LFB9:
	.loc 1 62 0
	.cfi_startproc
	@ args = 0, pretend = 0, frame = 0
	@ frame_needed = 0, uses_anonymous_args = 0
	stmfd	sp!, {r3, lr}
	.cfi_def_cfa_offset 8
	.cfi_offset 3, -8
	.cfi_offset 14, -4
	.loc 1 63 0
	bl	_Z23setBeijingTime_platformv(PLT)
	.loc 1 64 0
	ldmfd	sp!, {r3, pc}
	.cfi_endproc
.LFE9:
	.size	setBeijingTime, .-setBeijingTime
	.section	.text.notShared,"ax",%progbits
	.align	2
	.global	notShared
	.hidden	notShared
	.type	notShared, %function
notShared:
.LFB10:
	.loc 1 67 0
	.cfi_startproc
	@ args = 0, pretend = 0, frame = 0
	@ frame_needed = 0, uses_anonymous_args = 0
	stmfd	sp!, {r3, lr}
	.cfi_def_cfa_offset 8
	.cfi_offset 3, -8
	.cfi_offset 14, -4
	.loc 1 68 0
	bl	_Z18notShared_platformv(PLT)
	mov	r3, r0
	.loc 1 69 0
	mov	r0, r3
	ldmfd	sp!, {r3, pc}
	.cfi_endproc
.LFE10:
	.size	notShared, .-notShared
	.section	.text.setShareTime,"ax",%progbits
	.align	2
	.global	setShareTime
	.hidden	setShareTime
	.type	setShareTime, %function
setShareTime:
.LFB11:
	.loc 1 72 0
	.cfi_startproc
	@ args = 0, pretend = 0, frame = 0
	@ frame_needed = 0, uses_anonymous_args = 0
	stmfd	sp!, {r3, lr}
	.cfi_def_cfa_offset 8
	.cfi_offset 3, -8
	.cfi_offset 14, -4
	.loc 1 73 0
	bl	_Z21setShareTime_platformv(PLT)
	.loc 1 74 0
	ldmfd	sp!, {r3, pc}
	.cfi_endproc
.LFE11:
	.size	setShareTime, .-setShareTime
	.text
.Letext0:
	.file 2 "e:/marmalade/7.0/s3e/h/s3eTypes.h"
	.section	.note.GNU-stack,"",%progbits
