	.arch armv5te
	.eabi_attribute 27, 3
	.fpu vfp
	.eabi_attribute 20, 1
	.eabi_attribute 21, 1
	.eabi_attribute 23, 3
	.eabi_attribute 24, 1
	.eabi_attribute 25, 1
	.eabi_attribute 26, 2
	.eabi_attribute 30, 6
	.eabi_attribute 34, 0
	.eabi_attribute 18, 4
	.file	"LihuiLB_platform.cpp"
	.text
.Ltext0:
	.cfi_sections	.debug_frame
	.section	.text._ZN7_JNIEnv9FindClassEPKc,"axG",%progbits,_ZN7_JNIEnv9FindClassEPKc,comdat
	.align	2
	.weak	_ZN7_JNIEnv9FindClassEPKc
	.hidden	_ZN7_JNIEnv9FindClassEPKc
	.type	_ZN7_JNIEnv9FindClassEPKc, %function
_ZN7_JNIEnv9FindClassEPKc:
.LFB2:
	.file 1 "e:/marmalade/7.0/s3e/edk/h/jni.h"
	.loc 1 502 0
	.cfi_startproc
	@ args = 0, pretend = 0, frame = 8
	@ frame_needed = 0, uses_anonymous_args = 0
	str	lr, [sp, #-4]!
	.cfi_def_cfa_offset 4
	.cfi_offset 14, -4
	sub	sp, sp, #12
	.cfi_def_cfa_offset 16
	str	r0, [sp, #4]
	str	r1, [sp]
	.loc 1 503 0
	ldr	r3, [sp, #4]
	ldr	r3, [r3]
	ldr	r3, [r3, #24]
	ldr	r0, [sp, #4]
	ldr	r1, [sp]
	blx	r3
	mov	r3, r0
	mov	r0, r3
	add	sp, sp, #12
	@ sp needed
	ldr	pc, [sp], #4
	.cfi_endproc
.LFE2:
	.size	_ZN7_JNIEnv9FindClassEPKc, .-_ZN7_JNIEnv9FindClassEPKc
	.section	.text._ZN7_JNIEnv17ExceptionOccurredEv,"axG",%progbits,_ZN7_JNIEnv17ExceptionOccurredEv,comdat
	.align	2
	.weak	_ZN7_JNIEnv17ExceptionOccurredEv
	.hidden	_ZN7_JNIEnv17ExceptionOccurredEv
	.type	_ZN7_JNIEnv17ExceptionOccurredEv, %function
_ZN7_JNIEnv17ExceptionOccurredEv:
.LFB11:
	.loc 1 529 0
	.cfi_startproc
	@ args = 0, pretend = 0, frame = 8
	@ frame_needed = 0, uses_anonymous_args = 0
	str	lr, [sp, #-4]!
	.cfi_def_cfa_offset 4
	.cfi_offset 14, -4
	sub	sp, sp, #12
	.cfi_def_cfa_offset 16
	str	r0, [sp, #4]
	.loc 1 530 0
	ldr	r3, [sp, #4]
	ldr	r3, [r3]
	ldr	r3, [r3, #60]
	ldr	r0, [sp, #4]
	blx	r3
	mov	r3, r0
	mov	r0, r3
	add	sp, sp, #12
	@ sp needed
	ldr	pc, [sp], #4
	.cfi_endproc
.LFE11:
	.size	_ZN7_JNIEnv17ExceptionOccurredEv, .-_ZN7_JNIEnv17ExceptionOccurredEv
	.section	.text._ZN7_JNIEnv17ExceptionDescribeEv,"axG",%progbits,_ZN7_JNIEnv17ExceptionDescribeEv,comdat
	.align	2
	.weak	_ZN7_JNIEnv17ExceptionDescribeEv
	.hidden	_ZN7_JNIEnv17ExceptionDescribeEv
	.type	_ZN7_JNIEnv17ExceptionDescribeEv, %function
_ZN7_JNIEnv17ExceptionDescribeEv:
.LFB12:
	.loc 1 532 0
	.cfi_startproc
	@ args = 0, pretend = 0, frame = 8
	@ frame_needed = 0, uses_anonymous_args = 0
	str	lr, [sp, #-4]!
	.cfi_def_cfa_offset 4
	.cfi_offset 14, -4
	sub	sp, sp, #12
	.cfi_def_cfa_offset 16
	str	r0, [sp, #4]
	.loc 1 533 0
	ldr	r3, [sp, #4]
	ldr	r3, [r3]
	ldr	r3, [r3, #64]
	ldr	r0, [sp, #4]
	blx	r3
	add	sp, sp, #12
	@ sp needed
	ldr	pc, [sp], #4
	.cfi_endproc
.LFE12:
	.size	_ZN7_JNIEnv17ExceptionDescribeEv, .-_ZN7_JNIEnv17ExceptionDescribeEv
	.section	.text._ZN7_JNIEnv14ExceptionClearEv,"axG",%progbits,_ZN7_JNIEnv14ExceptionClearEv,comdat
	.align	2
	.weak	_ZN7_JNIEnv14ExceptionClearEv
	.hidden	_ZN7_JNIEnv14ExceptionClearEv
	.type	_ZN7_JNIEnv14ExceptionClearEv, %function
_ZN7_JNIEnv14ExceptionClearEv:
.LFB13:
	.loc 1 535 0
	.cfi_startproc
	@ args = 0, pretend = 0, frame = 8
	@ frame_needed = 0, uses_anonymous_args = 0
	str	lr, [sp, #-4]!
	.cfi_def_cfa_offset 4
	.cfi_offset 14, -4
	sub	sp, sp, #12
	.cfi_def_cfa_offset 16
	str	r0, [sp, #4]
	.loc 1 536 0
	ldr	r3, [sp, #4]
	ldr	r3, [r3]
	ldr	r3, [r3, #68]
	ldr	r0, [sp, #4]
	blx	r3
	add	sp, sp, #12
	@ sp needed
	ldr	pc, [sp], #4
	.cfi_endproc
.LFE13:
	.size	_ZN7_JNIEnv14ExceptionClearEv, .-_ZN7_JNIEnv14ExceptionClearEv
	.section	.text._ZN7_JNIEnv12NewGlobalRefEP8_jobject,"axG",%progbits,_ZN7_JNIEnv12NewGlobalRefEP8_jobject,comdat
	.align	2
	.weak	_ZN7_JNIEnv12NewGlobalRefEP8_jobject
	.hidden	_ZN7_JNIEnv12NewGlobalRefEP8_jobject
	.type	_ZN7_JNIEnv12NewGlobalRefEP8_jobject, %function
_ZN7_JNIEnv12NewGlobalRefEP8_jobject:
.LFB17:
	.loc 1 547 0
	.cfi_startproc
	@ args = 0, pretend = 0, frame = 8
	@ frame_needed = 0, uses_anonymous_args = 0
	str	lr, [sp, #-4]!
	.cfi_def_cfa_offset 4
	.cfi_offset 14, -4
	sub	sp, sp, #12
	.cfi_def_cfa_offset 16
	str	r0, [sp, #4]
	str	r1, [sp]
	.loc 1 548 0
	ldr	r3, [sp, #4]
	ldr	r3, [r3]
	ldr	r3, [r3, #84]
	ldr	r0, [sp, #4]
	ldr	r1, [sp]
	blx	r3
	mov	r3, r0
	mov	r0, r3
	add	sp, sp, #12
	@ sp needed
	ldr	pc, [sp], #4
	.cfi_endproc
.LFE17:
	.size	_ZN7_JNIEnv12NewGlobalRefEP8_jobject, .-_ZN7_JNIEnv12NewGlobalRefEP8_jobject
	.section	.text._ZN7_JNIEnv15DeleteGlobalRefEP8_jobject,"axG",%progbits,_ZN7_JNIEnv15DeleteGlobalRefEP8_jobject,comdat
	.align	2
	.weak	_ZN7_JNIEnv15DeleteGlobalRefEP8_jobject
	.hidden	_ZN7_JNIEnv15DeleteGlobalRefEP8_jobject
	.type	_ZN7_JNIEnv15DeleteGlobalRefEP8_jobject, %function
_ZN7_JNIEnv15DeleteGlobalRefEP8_jobject:
.LFB18:
	.loc 1 550 0
	.cfi_startproc
	@ args = 0, pretend = 0, frame = 8
	@ frame_needed = 0, uses_anonymous_args = 0
	str	lr, [sp, #-4]!
	.cfi_def_cfa_offset 4
	.cfi_offset 14, -4
	sub	sp, sp, #12
	.cfi_def_cfa_offset 16
	str	r0, [sp, #4]
	str	r1, [sp]
	.loc 1 551 0
	ldr	r3, [sp, #4]
	ldr	r3, [r3]
	ldr	r3, [r3, #88]
	ldr	r0, [sp, #4]
	ldr	r1, [sp]
	blx	r3
	add	sp, sp, #12
	@ sp needed
	ldr	pc, [sp], #4
	.cfi_endproc
.LFE18:
	.size	_ZN7_JNIEnv15DeleteGlobalRefEP8_jobject, .-_ZN7_JNIEnv15DeleteGlobalRefEP8_jobject
	.section	.text._ZN7_JNIEnv14DeleteLocalRefEP8_jobject,"axG",%progbits,_ZN7_JNIEnv14DeleteLocalRefEP8_jobject,comdat
	.align	2
	.weak	_ZN7_JNIEnv14DeleteLocalRefEP8_jobject
	.hidden	_ZN7_JNIEnv14DeleteLocalRefEP8_jobject
	.type	_ZN7_JNIEnv14DeleteLocalRefEP8_jobject, %function
_ZN7_JNIEnv14DeleteLocalRefEP8_jobject:
.LFB19:
	.loc 1 553 0
	.cfi_startproc
	@ args = 0, pretend = 0, frame = 8
	@ frame_needed = 0, uses_anonymous_args = 0
	str	lr, [sp, #-4]!
	.cfi_def_cfa_offset 4
	.cfi_offset 14, -4
	sub	sp, sp, #12
	.cfi_def_cfa_offset 16
	str	r0, [sp, #4]
	str	r1, [sp]
	.loc 1 554 0
	ldr	r3, [sp, #4]
	ldr	r3, [r3]
	ldr	r3, [r3, #92]
	ldr	r0, [sp, #4]
	ldr	r1, [sp]
	blx	r3
	add	sp, sp, #12
	@ sp needed
	ldr	pc, [sp], #4
	.cfi_endproc
.LFE19:
	.size	_ZN7_JNIEnv14DeleteLocalRefEP8_jobject, .-_ZN7_JNIEnv14DeleteLocalRefEP8_jobject
	.section	.text._ZN7_JNIEnv9NewObjectEP7_jclassP10_jmethodIDz,"axG",%progbits,_ZN7_JNIEnv9NewObjectEP7_jclassP10_jmethodIDz,comdat
	.align	2
	.weak	_ZN7_JNIEnv9NewObjectEP7_jclassP10_jmethodIDz
	.hidden	_ZN7_JNIEnv9NewObjectEP7_jclassP10_jmethodIDz
	.type	_ZN7_JNIEnv9NewObjectEP7_jclassP10_jmethodIDz, %function
_ZN7_JNIEnv9NewObjectEP7_jclassP10_jmethodIDz:
.LFB24:
	.loc 1 568 0
	.cfi_startproc
	@ args = 4, pretend = 8, frame = 16
	@ frame_needed = 0, uses_anonymous_args = 1
	stmfd	sp!, {r2, r3}
	.cfi_def_cfa_offset 8
	.cfi_offset 2, -8
	.cfi_offset 3, -4
	str	lr, [sp, #-4]!
	.cfi_def_cfa_offset 12
	.cfi_offset 14, -12
	sub	sp, sp, #20
	.cfi_def_cfa_offset 32
	str	r0, [sp, #4]
	str	r1, [sp]
.LBB2:
	.loc 1 571 0
	add	r3, sp, #28
	str	r3, [sp, #8]
	.loc 1 572 0
	ldr	r3, [sp, #4]
	ldr	r3, [r3]
	ldr	ip, [r3, #116]
	ldr	r0, [sp, #4]
	ldr	r1, [sp]
	ldr	r2, [sp, #24]
	ldr	r3, [sp, #8]
	blx	ip
	str	r0, [sp, #12]
	.loc 1 574 0
	ldr	r3, [sp, #12]
.LBE2:
	.loc 1 575 0
	mov	r0, r3
	add	sp, sp, #20
	@ sp needed
	ldr	lr, [sp], #4
	add	sp, sp, #8
	bx	lr
	.cfi_endproc
.LFE24:
	.size	_ZN7_JNIEnv9NewObjectEP7_jclassP10_jmethodIDz, .-_ZN7_JNIEnv9NewObjectEP7_jclassP10_jmethodIDz
	.section	.text._ZN7_JNIEnv11GetMethodIDEP7_jclassPKcS3_,"axG",%progbits,_ZN7_JNIEnv11GetMethodIDEP7_jclassPKcS3_,comdat
	.align	2
	.weak	_ZN7_JNIEnv11GetMethodIDEP7_jclassPKcS3_
	.hidden	_ZN7_JNIEnv11GetMethodIDEP7_jclassPKcS3_
	.type	_ZN7_JNIEnv11GetMethodIDEP7_jclassPKcS3_, %function
_ZN7_JNIEnv11GetMethodIDEP7_jclassPKcS3_:
.LFB29:
	.loc 1 589 0
	.cfi_startproc
	@ args = 0, pretend = 0, frame = 16
	@ frame_needed = 0, uses_anonymous_args = 0
	str	lr, [sp, #-4]!
	.cfi_def_cfa_offset 4
	.cfi_offset 14, -4
	sub	sp, sp, #20
	.cfi_def_cfa_offset 24
	str	r0, [sp, #12]
	str	r1, [sp, #8]
	str	r2, [sp, #4]
	str	r3, [sp]
	.loc 1 590 0
	ldr	r3, [sp, #12]
	ldr	r3, [r3]
	ldr	ip, [r3, #132]
	ldr	r0, [sp, #12]
	ldr	r1, [sp, #8]
	ldr	r2, [sp, #4]
	ldr	r3, [sp]
	blx	ip
	mov	r3, r0
	mov	r0, r3
	add	sp, sp, #20
	@ sp needed
	ldr	pc, [sp], #4
	.cfi_endproc
.LFE29:
	.size	_ZN7_JNIEnv11GetMethodIDEP7_jclassPKcS3_, .-_ZN7_JNIEnv11GetMethodIDEP7_jclassPKcS3_
	.section	.text._ZN7_JNIEnv17CallBooleanMethodEP8_jobjectP10_jmethodIDz,"axG",%progbits,_ZN7_JNIEnv17CallBooleanMethodEP8_jobjectP10_jmethodIDz,comdat
	.align	2
	.weak	_ZN7_JNIEnv17CallBooleanMethodEP8_jobjectP10_jmethodIDz
	.hidden	_ZN7_JNIEnv17CallBooleanMethodEP8_jobjectP10_jmethodIDz
	.type	_ZN7_JNIEnv17CallBooleanMethodEP8_jobjectP10_jmethodIDz, %function
_ZN7_JNIEnv17CallBooleanMethodEP8_jobjectP10_jmethodIDz:
.LFB33:
	.loc 1 618 0
	.cfi_startproc
	@ args = 4, pretend = 8, frame = 16
	@ frame_needed = 0, uses_anonymous_args = 1
	stmfd	sp!, {r2, r3}
	.cfi_def_cfa_offset 8
	.cfi_offset 2, -8
	.cfi_offset 3, -4
	str	lr, [sp, #-4]!
	.cfi_def_cfa_offset 12
	.cfi_offset 14, -12
	sub	sp, sp, #20
	.cfi_def_cfa_offset 32
	str	r0, [sp, #4]
	str	r1, [sp]
.LBB3:
	.loc 1 618 0
	add	r3, sp, #28
	str	r3, [sp, #8]
	ldr	r3, [sp, #4]
	ldr	r3, [r3]
	ldr	ip, [r3, #152]
	ldr	r0, [sp, #4]
	ldr	r1, [sp]
	ldr	r2, [sp, #24]
	ldr	r3, [sp, #8]
	blx	ip
	mov	r3, r0
	strb	r3, [sp, #15]
	ldrb	r3, [sp, #15]	@ zero_extendqisi2
.LBE3:
	mov	r0, r3
	add	sp, sp, #20
	@ sp needed
	ldr	lr, [sp], #4
	add	sp, sp, #8
	bx	lr
	.cfi_endproc
.LFE33:
	.size	_ZN7_JNIEnv17CallBooleanMethodEP8_jobjectP10_jmethodIDz, .-_ZN7_JNIEnv17CallBooleanMethodEP8_jobjectP10_jmethodIDz
	.section	.text._ZN7_JNIEnv13CallIntMethodEP8_jobjectP10_jmethodIDz,"axG",%progbits,_ZN7_JNIEnv13CallIntMethodEP8_jobjectP10_jmethodIDz,comdat
	.align	2
	.weak	_ZN7_JNIEnv13CallIntMethodEP8_jobjectP10_jmethodIDz
	.hidden	_ZN7_JNIEnv13CallIntMethodEP8_jobjectP10_jmethodIDz
	.type	_ZN7_JNIEnv13CallIntMethodEP8_jobjectP10_jmethodIDz, %function
_ZN7_JNIEnv13CallIntMethodEP8_jobjectP10_jmethodIDz:
.LFB45:
	.loc 1 622 0
	.cfi_startproc
	@ args = 4, pretend = 8, frame = 16
	@ frame_needed = 0, uses_anonymous_args = 1
	stmfd	sp!, {r2, r3}
	.cfi_def_cfa_offset 8
	.cfi_offset 2, -8
	.cfi_offset 3, -4
	str	lr, [sp, #-4]!
	.cfi_def_cfa_offset 12
	.cfi_offset 14, -12
	sub	sp, sp, #20
	.cfi_def_cfa_offset 32
	str	r0, [sp, #4]
	str	r1, [sp]
.LBB4:
	.loc 1 622 0
	add	r3, sp, #28
	str	r3, [sp, #8]
	ldr	r3, [sp, #4]
	ldr	r3, [r3]
	ldr	ip, [r3, #200]
	ldr	r0, [sp, #4]
	ldr	r1, [sp]
	ldr	r2, [sp, #24]
	ldr	r3, [sp, #8]
	blx	ip
	str	r0, [sp, #12]
	ldr	r3, [sp, #12]
.LBE4:
	mov	r0, r3
	add	sp, sp, #20
	@ sp needed
	ldr	lr, [sp], #4
	add	sp, sp, #8
	bx	lr
	.cfi_endproc
.LFE45:
	.size	_ZN7_JNIEnv13CallIntMethodEP8_jobjectP10_jmethodIDz, .-_ZN7_JNIEnv13CallIntMethodEP8_jobjectP10_jmethodIDz
	.section	.text._ZN7_JNIEnv14CallVoidMethodEP8_jobjectP10_jmethodIDz,"axG",%progbits,_ZN7_JNIEnv14CallVoidMethodEP8_jobjectP10_jmethodIDz,comdat
	.align	2
	.weak	_ZN7_JNIEnv14CallVoidMethodEP8_jobjectP10_jmethodIDz
	.hidden	_ZN7_JNIEnv14CallVoidMethodEP8_jobjectP10_jmethodIDz
	.type	_ZN7_JNIEnv14CallVoidMethodEP8_jobjectP10_jmethodIDz, %function
_ZN7_JNIEnv14CallVoidMethodEP8_jobjectP10_jmethodIDz:
.LFB57:
	.loc 1 627 0
	.cfi_startproc
	@ args = 4, pretend = 8, frame = 16
	@ frame_needed = 0, uses_anonymous_args = 1
	stmfd	sp!, {r2, r3}
	.cfi_def_cfa_offset 8
	.cfi_offset 2, -8
	.cfi_offset 3, -4
	str	lr, [sp, #-4]!
	.cfi_def_cfa_offset 12
	.cfi_offset 14, -12
	sub	sp, sp, #20
	.cfi_def_cfa_offset 32
	str	r0, [sp, #4]
	str	r1, [sp]
.LBB5:
	.loc 1 630 0
	add	r3, sp, #28
	str	r3, [sp, #12]
	.loc 1 631 0
	ldr	r3, [sp, #4]
	ldr	r3, [r3]
	ldr	ip, [r3, #248]
	ldr	r0, [sp, #4]
	ldr	r1, [sp]
	ldr	r2, [sp, #24]
	ldr	r3, [sp, #12]
	blx	ip
.LBE5:
	.loc 1 633 0
	add	sp, sp, #20
	@ sp needed
	ldr	lr, [sp], #4
	add	sp, sp, #8
	bx	lr
	.cfi_endproc
.LFE57:
	.size	_ZN7_JNIEnv14CallVoidMethodEP8_jobjectP10_jmethodIDz, .-_ZN7_JNIEnv14CallVoidMethodEP8_jobjectP10_jmethodIDz
	.section	.text._ZN7_JNIEnv15GetStringLengthEP8_jstring,"axG",%progbits,_ZN7_JNIEnv15GetStringLengthEP8_jstring,comdat
	.align	2
	.weak	_ZN7_JNIEnv15GetStringLengthEP8_jstring
	.hidden	_ZN7_JNIEnv15GetStringLengthEP8_jstring
	.type	_ZN7_JNIEnv15GetStringLengthEP8_jstring, %function
_ZN7_JNIEnv15GetStringLengthEP8_jstring:
.LFB160:
	.loc 1 830 0
	.cfi_startproc
	@ args = 0, pretend = 0, frame = 8
	@ frame_needed = 0, uses_anonymous_args = 0
	str	lr, [sp, #-4]!
	.cfi_def_cfa_offset 4
	.cfi_offset 14, -4
	sub	sp, sp, #12
	.cfi_def_cfa_offset 16
	str	r0, [sp, #4]
	str	r1, [sp]
	.loc 1 831 0
	ldr	r3, [sp, #4]
	ldr	r3, [r3]
	ldr	r3, [r3, #656]
	ldr	r0, [sp, #4]
	ldr	r1, [sp]
	blx	r3
	mov	r3, r0
	mov	r0, r3
	add	sp, sp, #12
	@ sp needed
	ldr	pc, [sp], #4
	.cfi_endproc
.LFE160:
	.size	_ZN7_JNIEnv15GetStringLengthEP8_jstring, .-_ZN7_JNIEnv15GetStringLengthEP8_jstring
	.section	.text._ZN7_JNIEnv17GetStringUTFCharsEP8_jstringPh,"axG",%progbits,_ZN7_JNIEnv17GetStringUTFCharsEP8_jstringPh,comdat
	.align	2
	.weak	_ZN7_JNIEnv17GetStringUTFCharsEP8_jstringPh
	.hidden	_ZN7_JNIEnv17GetStringUTFCharsEP8_jstringPh
	.type	_ZN7_JNIEnv17GetStringUTFCharsEP8_jstringPh, %function
_ZN7_JNIEnv17GetStringUTFCharsEP8_jstringPh:
.LFB165:
	.loc 1 845 0
	.cfi_startproc
	@ args = 0, pretend = 0, frame = 16
	@ frame_needed = 0, uses_anonymous_args = 0
	str	lr, [sp, #-4]!
	.cfi_def_cfa_offset 4
	.cfi_offset 14, -4
	sub	sp, sp, #20
	.cfi_def_cfa_offset 24
	str	r0, [sp, #12]
	str	r1, [sp, #8]
	str	r2, [sp, #4]
	.loc 1 846 0
	ldr	r3, [sp, #12]
	ldr	r3, [r3]
	ldr	r3, [r3, #676]
	ldr	r0, [sp, #12]
	ldr	r1, [sp, #8]
	ldr	r2, [sp, #4]
	blx	r3
	mov	r3, r0
	mov	r0, r3
	add	sp, sp, #20
	@ sp needed
	ldr	pc, [sp], #4
	.cfi_endproc
.LFE165:
	.size	_ZN7_JNIEnv17GetStringUTFCharsEP8_jstringPh, .-_ZN7_JNIEnv17GetStringUTFCharsEP8_jstringPh
	.section	.text._ZN7_JNIEnv21ReleaseStringUTFCharsEP8_jstringPKc,"axG",%progbits,_ZN7_JNIEnv21ReleaseStringUTFCharsEP8_jstringPKc,comdat
	.align	2
	.weak	_ZN7_JNIEnv21ReleaseStringUTFCharsEP8_jstringPKc
	.hidden	_ZN7_JNIEnv21ReleaseStringUTFCharsEP8_jstringPKc
	.type	_ZN7_JNIEnv21ReleaseStringUTFCharsEP8_jstringPKc, %function
_ZN7_JNIEnv21ReleaseStringUTFCharsEP8_jstringPKc:
.LFB166:
	.loc 1 848 0
	.cfi_startproc
	@ args = 0, pretend = 0, frame = 16
	@ frame_needed = 0, uses_anonymous_args = 0
	str	lr, [sp, #-4]!
	.cfi_def_cfa_offset 4
	.cfi_offset 14, -4
	sub	sp, sp, #20
	.cfi_def_cfa_offset 24
	str	r0, [sp, #12]
	str	r1, [sp, #8]
	str	r2, [sp, #4]
	.loc 1 849 0
	ldr	r3, [sp, #12]
	ldr	r3, [r3]
	ldr	r3, [r3, #680]
	ldr	r0, [sp, #12]
	ldr	r1, [sp, #8]
	ldr	r2, [sp, #4]
	blx	r3
	add	sp, sp, #20
	@ sp needed
	ldr	pc, [sp], #4
	.cfi_endproc
.LFE166:
	.size	_ZN7_JNIEnv21ReleaseStringUTFCharsEP8_jstringPKc, .-_ZN7_JNIEnv21ReleaseStringUTFCharsEP8_jstringPKc
	.section	.text._ZN7_JNIEnv15RegisterNativesEP7_jclassPK15JNINativeMethodi,"axG",%progbits,_ZN7_JNIEnv15RegisterNativesEP7_jclassPK15JNINativeMethodi,comdat
	.align	2
	.weak	_ZN7_JNIEnv15RegisterNativesEP7_jclassPK15JNINativeMethodi
	.hidden	_ZN7_JNIEnv15RegisterNativesEP7_jclassPK15JNINativeMethodi
	.type	_ZN7_JNIEnv15RegisterNativesEP7_jclassPK15JNINativeMethodi, %function
_ZN7_JNIEnv15RegisterNativesEP7_jclassPK15JNINativeMethodi:
.LFB211:
	.loc 1 974 0
	.cfi_startproc
	@ args = 0, pretend = 0, frame = 16
	@ frame_needed = 0, uses_anonymous_args = 0
	str	lr, [sp, #-4]!
	.cfi_def_cfa_offset 4
	.cfi_offset 14, -4
	sub	sp, sp, #20
	.cfi_def_cfa_offset 24
	str	r0, [sp, #12]
	str	r1, [sp, #8]
	str	r2, [sp, #4]
	str	r3, [sp]
	.loc 1 976 0
	ldr	r3, [sp, #12]
	ldr	r3, [r3]
	ldr	ip, [r3, #860]
	ldr	r0, [sp, #12]
	ldr	r1, [sp, #8]
	ldr	r2, [sp, #4]
	ldr	r3, [sp]
	blx	ip
	mov	r3, r0
	mov	r0, r3
	add	sp, sp, #20
	@ sp needed
	ldr	pc, [sp], #4
	.cfi_endproc
.LFE211:
	.size	_ZN7_JNIEnv15RegisterNativesEP7_jclassPK15JNINativeMethodi, .-_ZN7_JNIEnv15RegisterNativesEP7_jclassPK15JNINativeMethodi
	.section	.text._ZN7_JavaVM6GetEnvEPPvi,"axG",%progbits,_ZN7_JavaVM6GetEnvEPPvi,comdat
	.align	2
	.weak	_ZN7_JavaVM6GetEnvEPPvi
	.hidden	_ZN7_JavaVM6GetEnvEPPvi
	.type	_ZN7_JavaVM6GetEnvEPPvi, %function
_ZN7_JavaVM6GetEnvEPPvi:
.LFB232:
	.loc 1 1061 0
	.cfi_startproc
	@ args = 0, pretend = 0, frame = 16
	@ frame_needed = 0, uses_anonymous_args = 0
	str	lr, [sp, #-4]!
	.cfi_def_cfa_offset 4
	.cfi_offset 14, -4
	sub	sp, sp, #20
	.cfi_def_cfa_offset 24
	str	r0, [sp, #12]
	str	r1, [sp, #8]
	str	r2, [sp, #4]
	.loc 1 1062 0
	ldr	r3, [sp, #12]
	ldr	r3, [r3]
	ldr	r3, [r3, #24]
	ldr	r0, [sp, #12]
	ldr	r1, [sp, #8]
	ldr	r2, [sp, #4]
	blx	r3
	mov	r3, r0
	mov	r0, r3
	add	sp, sp, #20
	@ sp needed
	ldr	pc, [sp], #4
	.cfi_endproc
.LFE232:
	.size	_ZN7_JavaVM6GetEnvEPPvi, .-_ZN7_JavaVM6GetEnvEPPvi
	.section	.text._ZL15s3eEdkJNIGetEnvv,"ax",%progbits
	.align	2
	.type	_ZL15s3eEdkJNIGetEnvv, %function
_ZL15s3eEdkJNIGetEnvv:
.LFB234:
	.file 2 "e:/marmalade/7.0/s3e/edk/h/s3eEdk_android.h"
	.loc 2 46 0
	.cfi_startproc
	@ args = 0, pretend = 0, frame = 8
	@ frame_needed = 0, uses_anonymous_args = 0
	str	lr, [sp, #-4]!
	.cfi_def_cfa_offset 4
	.cfi_offset 14, -4
	sub	sp, sp, #12
	.cfi_def_cfa_offset 16
.LBB6:
	.loc 2 47 0
	bl	s3eEdkJNIGetVM(PLT)
	str	r0, [sp, #4]
	.loc 2 48 0
	mov	r3, #0
	str	r3, [sp]
	.loc 2 49 0
	mov	r3, sp
	ldr	r0, [sp, #4]
	mov	r1, r3
	ldr	r2, .L31
	bl	_ZN7_JavaVM6GetEnvEPPvi(PLT)
	.loc 2 50 0
	ldr	r3, [sp]
.LBE6:
	.loc 2 51 0
	mov	r0, r3
	add	sp, sp, #12
	@ sp needed
	ldr	pc, [sp], #4
.L32:
	.align	2
.L31:
	.word	65538
	.cfi_endproc
.LFE234:
	.size	_ZL15s3eEdkJNIGetEnvv, .-_ZL15s3eEdkJNIGetEnvv
	.local	_ZL5g_Obj
	.comm	_ZL5g_Obj,4,4
	.local	_ZL8g_initLB
	.comm	_ZL8g_initLB,4,4
	.local	_ZL13g_updateScore
	.comm	_ZL13g_updateScore,4,4
	.local	_ZL13g_receiveRank
	.comm	_ZL13g_receiveRank,4,4
	.local	_ZL10g_getScore
	.comm	_ZL10g_getScore,4,4
	.local	_ZL13g_getUserRank
	.comm	_ZL13g_getUserRank,4,4
	.local	_ZL24g_getNextWeekLeftSeconds
	.comm	_ZL24g_getNextWeekLeftSeconds,4,4
	.local	_ZL19g_notUnlimetedLives
	.comm	_ZL19g_notUnlimetedLives,4,4
	.local	_ZL16g_setBeijingTime
	.comm	_ZL16g_setBeijingTime,4,4
	.local	_ZL11g_notShared
	.comm	_ZL11g_notShared,4,4
	.local	_ZL14g_setShareTime
	.comm	_ZL14g_setShareTime,4,4
	.section	.rodata
	.align	2
.LC0:
	.ascii	"cn/lihui/test/LBInterface\000"
	.align	2
.LC1:
	.ascii	"<init>\000"
	.align	2
.LC2:
	.ascii	"()V\000"
	.align	2
.LC3:
	.ascii	"initLB\000"
	.align	2
.LC4:
	.ascii	"updateScore\000"
	.align	2
.LC5:
	.ascii	"(I)V\000"
	.align	2
.LC6:
	.ascii	"receiveRank\000"
	.align	2
.LC7:
	.ascii	"getScore\000"
	.align	2
.LC8:
	.ascii	"(I)I\000"
	.align	2
.LC9:
	.ascii	"getUserRank\000"
	.align	2
.LC10:
	.ascii	"()I\000"
	.align	2
.LC11:
	.ascii	"getNextWeekLeftSeconds\000"
	.align	2
.LC12:
	.ascii	"notUnlimetedLives\000"
	.align	2
.LC13:
	.ascii	"()Z\000"
	.align	2
.LC14:
	.ascii	"setBeijingTime\000"
	.align	2
.LC15:
	.ascii	"notShared\000"
	.align	2
.LC16:
	.ascii	"setShareTime\000"
	.align	2
.LC17:
	.ascii	"LIHUILB\000"
	.align	2
.LC18:
	.ascii	"LIHUILB init success\000"
	.align	2
.LC19:
	.ascii	"LihuiLB\000"
	.align	2
.LC20:
	.ascii	"One or more java methods could not be found\000"
	.section	.text._Z20LihuiLBInit_platformv,"ax",%progbits
	.align	2
	.global	_Z20LihuiLBInit_platformv
	.hidden	_Z20LihuiLBInit_platformv
	.type	_Z20LihuiLBInit_platformv, %function
_Z20LihuiLBInit_platformv:
.LFB270:
	.file 3 "D:\\10kgratExtension\\ExMarmalade\\LihuiLB\\LihuiLB\\source\\android\\LihuiLB_platform.cpp"
	.loc 3 34 0
	.cfi_startproc
	@ args = 0, pretend = 0, frame = 24
	@ frame_needed = 0, uses_anonymous_args = 0
	str	lr, [sp, #-4]!
	.cfi_def_cfa_offset 4
	.cfi_offset 14, -4
	sub	sp, sp, #28
	.cfi_def_cfa_offset 32
.LBB7:
	.loc 3 36 0
	bl	_ZL15s3eEdkJNIGetEnvv(PLT)
	str	r0, [sp, #20]
	.loc 3 37 0
	mov	r3, #0
	str	r3, [sp, #16]
	.loc 3 38 0
	mov	r3, #0
	str	r3, [sp, #12]
	.loc 3 41 0
	ldr	r0, [sp, #20]
	ldr	r3, .L52
.LPIC0:
	add	r3, pc, r3
	mov	r1, r3
	bl	_ZN7_JNIEnv9FindClassEPKc(PLT)
	str	r0, [sp, #8]
	.loc 3 42 0
	ldr	r3, [sp, #8]
	cmp	r3, #0
	bne	.L34
	.loc 3 43 0
	b	.L35
.L34:
	.loc 3 46 0
	ldr	r0, [sp, #20]
	ldr	r1, [sp, #8]
	ldr	r3, .L52+4
.LPIC1:
	add	r3, pc, r3
	mov	r2, r3
	ldr	r3, .L52+8
.LPIC2:
	add	r3, pc, r3
	bl	_ZN7_JNIEnv11GetMethodIDEP7_jclassPKcS3_(PLT)
	str	r0, [sp, #12]
	.loc 3 47 0
	ldr	r3, [sp, #12]
	cmp	r3, #0
	bne	.L36
	.loc 3 48 0
	b	.L35
.L36:
	.loc 3 51 0
	ldr	r0, [sp, #20]
	ldr	r1, [sp, #8]
	ldr	r2, [sp, #12]
	bl	_ZN7_JNIEnv9NewObjectEP7_jclassP10_jmethodIDz(PLT)
	str	r0, [sp, #16]
	.loc 3 52 0
	ldr	r3, [sp, #16]
	cmp	r3, #0
	bne	.L37
	.loc 3 53 0
	b	.L35
.L37:
	.loc 3 56 0
	ldr	r0, [sp, #20]
	ldr	r1, [sp, #8]
	ldr	r3, .L52+12
.LPIC3:
	add	r3, pc, r3
	mov	r2, r3
	ldr	r3, .L52+16
.LPIC4:
	add	r3, pc, r3
	bl	_ZN7_JNIEnv11GetMethodIDEP7_jclassPKcS3_(PLT)
	mov	r2, r0
	ldr	r3, .L52+20
.LPIC5:
	add	r3, pc, r3
	str	r2, [r3]
	.loc 3 57 0
	ldr	r3, .L52+24
.LPIC6:
	add	r3, pc, r3
	ldr	r3, [r3]
	cmp	r3, #0
	bne	.L38
	.loc 3 58 0
	b	.L35
.L38:
	.loc 3 60 0
	ldr	r0, [sp, #20]
	ldr	r1, [sp, #8]
	ldr	r3, .L52+28
.LPIC7:
	add	r3, pc, r3
	mov	r2, r3
	ldr	r3, .L52+32
.LPIC8:
	add	r3, pc, r3
	bl	_ZN7_JNIEnv11GetMethodIDEP7_jclassPKcS3_(PLT)
	mov	r2, r0
	ldr	r3, .L52+36
.LPIC9:
	add	r3, pc, r3
	str	r2, [r3]
	.loc 3 61 0
	ldr	r3, .L52+40
.LPIC10:
	add	r3, pc, r3
	ldr	r3, [r3]
	cmp	r3, #0
	bne	.L39
	.loc 3 62 0
	b	.L35
.L39:
	.loc 3 64 0
	ldr	r0, [sp, #20]
	ldr	r1, [sp, #8]
	ldr	r3, .L52+44
.LPIC11:
	add	r3, pc, r3
	mov	r2, r3
	ldr	r3, .L52+48
.LPIC12:
	add	r3, pc, r3
	bl	_ZN7_JNIEnv11GetMethodIDEP7_jclassPKcS3_(PLT)
	mov	r2, r0
	ldr	r3, .L52+52
.LPIC13:
	add	r3, pc, r3
	str	r2, [r3]
	.loc 3 65 0
	ldr	r3, .L52+56
.LPIC14:
	add	r3, pc, r3
	ldr	r3, [r3]
	cmp	r3, #0
	bne	.L40
	.loc 3 66 0
	b	.L35
.L40:
	.loc 3 68 0
	ldr	r0, [sp, #20]
	ldr	r1, [sp, #8]
	ldr	r3, .L52+60
.LPIC15:
	add	r3, pc, r3
	mov	r2, r3
	ldr	r3, .L52+64
.LPIC16:
	add	r3, pc, r3
	bl	_ZN7_JNIEnv11GetMethodIDEP7_jclassPKcS3_(PLT)
	mov	r2, r0
	ldr	r3, .L52+68
.LPIC17:
	add	r3, pc, r3
	str	r2, [r3]
	.loc 3 69 0
	ldr	r3, .L52+72
.LPIC18:
	add	r3, pc, r3
	ldr	r3, [r3]
	cmp	r3, #0
	bne	.L41
	.loc 3 70 0
	b	.L35
.L41:
	.loc 3 72 0
	ldr	r0, [sp, #20]
	ldr	r1, [sp, #8]
	ldr	r3, .L52+76
.LPIC19:
	add	r3, pc, r3
	mov	r2, r3
	ldr	r3, .L52+80
.LPIC20:
	add	r3, pc, r3
	bl	_ZN7_JNIEnv11GetMethodIDEP7_jclassPKcS3_(PLT)
	mov	r2, r0
	ldr	r3, .L52+84
.LPIC21:
	add	r3, pc, r3
	str	r2, [r3]
	.loc 3 73 0
	ldr	r3, .L52+88
.LPIC22:
	add	r3, pc, r3
	ldr	r3, [r3]
	cmp	r3, #0
	bne	.L42
	.loc 3 74 0
	b	.L35
.L42:
	.loc 3 76 0
	ldr	r0, [sp, #20]
	ldr	r1, [sp, #8]
	ldr	r3, .L52+92
.LPIC23:
	add	r3, pc, r3
	mov	r2, r3
	ldr	r3, .L52+96
.LPIC24:
	add	r3, pc, r3
	bl	_ZN7_JNIEnv11GetMethodIDEP7_jclassPKcS3_(PLT)
	mov	r2, r0
	ldr	r3, .L52+100
.LPIC25:
	add	r3, pc, r3
	str	r2, [r3]
	.loc 3 77 0
	ldr	r3, .L52+104
.LPIC26:
	add	r3, pc, r3
	ldr	r3, [r3]
	cmp	r3, #0
	bne	.L43
	.loc 3 78 0
	b	.L35
.L43:
	.loc 3 80 0
	ldr	r0, [sp, #20]
	ldr	r1, [sp, #8]
	ldr	r3, .L52+108
.LPIC27:
	add	r3, pc, r3
	mov	r2, r3
	ldr	r3, .L52+112
.LPIC28:
	add	r3, pc, r3
	bl	_ZN7_JNIEnv11GetMethodIDEP7_jclassPKcS3_(PLT)
	mov	r2, r0
	ldr	r3, .L52+116
.LPIC29:
	add	r3, pc, r3
	str	r2, [r3]
	.loc 3 81 0
	ldr	r3, .L52+120
.LPIC30:
	add	r3, pc, r3
	ldr	r3, [r3]
	cmp	r3, #0
	bne	.L44
	.loc 3 82 0
	b	.L35
.L44:
	.loc 3 84 0
	ldr	r0, [sp, #20]
	ldr	r1, [sp, #8]
	ldr	r3, .L52+124
.LPIC31:
	add	r3, pc, r3
	mov	r2, r3
	ldr	r3, .L52+128
.LPIC32:
	add	r3, pc, r3
	bl	_ZN7_JNIEnv11GetMethodIDEP7_jclassPKcS3_(PLT)
	mov	r2, r0
	ldr	r3, .L52+132
.LPIC33:
	add	r3, pc, r3
	str	r2, [r3]
	.loc 3 85 0
	ldr	r3, .L52+136
.LPIC34:
	add	r3, pc, r3
	ldr	r3, [r3]
	cmp	r3, #0
	bne	.L45
	.loc 3 86 0
	b	.L35
.L45:
	.loc 3 88 0
	ldr	r0, [sp, #20]
	ldr	r1, [sp, #8]
	ldr	r3, .L52+140
.LPIC35:
	add	r3, pc, r3
	mov	r2, r3
	ldr	r3, .L52+144
.LPIC36:
	add	r3, pc, r3
	bl	_ZN7_JNIEnv11GetMethodIDEP7_jclassPKcS3_(PLT)
	mov	r2, r0
	ldr	r3, .L52+148
.LPIC37:
	add	r3, pc, r3
	str	r2, [r3]
	.loc 3 89 0
	ldr	r3, .L52+152
.LPIC38:
	add	r3, pc, r3
	ldr	r3, [r3]
	cmp	r3, #0
	bne	.L46
	.loc 3 90 0
	b	.L35
.L46:
	.loc 3 92 0
	ldr	r0, [sp, #20]
	ldr	r1, [sp, #8]
	ldr	r3, .L52+156
.LPIC39:
	add	r3, pc, r3
	mov	r2, r3
	ldr	r3, .L52+160
.LPIC40:
	add	r3, pc, r3
	bl	_ZN7_JNIEnv11GetMethodIDEP7_jclassPKcS3_(PLT)
	mov	r2, r0
	ldr	r3, .L52+164
.LPIC41:
	add	r3, pc, r3
	str	r2, [r3]
	.loc 3 93 0
	ldr	r3, .L52+168
.LPIC42:
	add	r3, pc, r3
	ldr	r3, [r3]
	cmp	r3, #0
	bne	.L47
	.loc 3 94 0
	b	.L35
.L47:
.LBB8:
	.loc 3 104 0
	mov	r3, #4
	ldr	r0, [sp, #20]
	ldr	r1, [sp, #8]
	ldr	r2, .L52+172
.LPIC43:
	add	r2, pc, r2
	bl	_ZN7_JNIEnv15RegisterNativesEP7_jclassPK15JNINativeMethodi(PLT)
	mov	r3, r0
	cmp	r3, #0
	moveq	r3, #0
	movne	r3, #1
	and	r3, r3, #255
	cmp	r3, #0
	beq	.L48
	.loc 3 105 0
	b	.L35
.L48:
.LBE8:
	.loc 3 109 0
	ldr	r3, .L52+176
.LPIC44:
	add	r3, pc, r3
	mov	r0, r3
	mov	r1, #1
	bl	IwDebugTraceIsChannelOn(PLT)
	mov	r3, r0
	cmp	r3, #0
	moveq	r3, #0
	movne	r3, #1
	and	r3, r3, #255
	cmp	r3, #0
	beq	.L49
	.loc 3 109 0 is_stmt 0 discriminator 1
	ldr	r3, .L52+180
.LPIC45:
	add	r3, pc, r3
	mov	r0, r3
	bl	IwDebugTraceSetTraceChannel(PLT)
	ldr	r3, .L52+184
.LPIC46:
	add	r3, pc, r3
	mov	r0, r3
	bl	IwDebugTraceLinePrintf(PLT)
.L49:
	.loc 3 110 0 is_stmt 1
	ldr	r0, [sp, #20]
	ldr	r1, [sp, #16]
	bl	_ZN7_JNIEnv12NewGlobalRefEP8_jobject(PLT)
	mov	r2, r0
	ldr	r3, .L52+188
.LPIC47:
	add	r3, pc, r3
	str	r2, [r3]
	.loc 3 111 0
	ldr	r0, [sp, #20]
	ldr	r1, [sp, #16]
	bl	_ZN7_JNIEnv14DeleteLocalRefEP8_jobject(PLT)
	.loc 3 112 0
	ldr	r0, [sp, #20]
	ldr	r1, [sp, #8]
	bl	_ZN7_JNIEnv15DeleteGlobalRefEP8_jobject(PLT)
	.loc 3 115 0
	mov	r3, #0
	b	.L50
.L35:
	.loc 3 118 0
	ldr	r0, [sp, #20]
	bl	_ZN7_JNIEnv17ExceptionOccurredEv(PLT)
	str	r0, [sp, #4]
	.loc 3 119 0
	ldr	r3, [sp, #4]
	cmp	r3, #0
	beq	.L51
	.loc 3 121 0
	ldr	r0, [sp, #20]
	bl	_ZN7_JNIEnv17ExceptionDescribeEv(PLT)
	.loc 3 122 0
	ldr	r0, [sp, #20]
	bl	_ZN7_JNIEnv14ExceptionClearEv(PLT)
	.loc 3 123 0
	ldr	r3, .L52+192
.LPIC48:
	add	r3, pc, r3
	mov	r0, r3
	mov	r1, #1
	bl	IwDebugTraceIsChannelOn(PLT)
	mov	r3, r0
	cmp	r3, #0
	moveq	r3, #0
	movne	r3, #1
	and	r3, r3, #255
	cmp	r3, #0
	beq	.L51
	.loc 3 123 0 is_stmt 0 discriminator 1
	ldr	r3, .L52+196
.LPIC49:
	add	r3, pc, r3
	mov	r0, r3
	bl	IwDebugTraceSetTraceChannel(PLT)
	ldr	r3, .L52+200
.LPIC50:
	add	r3, pc, r3
	mov	r0, r3
	bl	IwDebugTraceLinePrintf(PLT)
.L51:
	.loc 3 125 0 is_stmt 1
	mov	r3, #1
.L50:
.LBE7:
	.loc 3 127 0
	mov	r0, r3
	add	sp, sp, #28
	@ sp needed
	ldr	pc, [sp], #4
.L53:
	.align	2
.L52:
	.word	.LC0-(.LPIC0+8)
	.word	.LC1-(.LPIC1+8)
	.word	.LC2-(.LPIC2+8)
	.word	.LC3-(.LPIC3+8)
	.word	.LC2-(.LPIC4+8)
	.word	_ZL8g_initLB-(.LPIC5+8)
	.word	_ZL8g_initLB-(.LPIC6+8)
	.word	.LC4-(.LPIC7+8)
	.word	.LC5-(.LPIC8+8)
	.word	_ZL13g_updateScore-(.LPIC9+8)
	.word	_ZL13g_updateScore-(.LPIC10+8)
	.word	.LC6-(.LPIC11+8)
	.word	.LC2-(.LPIC12+8)
	.word	_ZL13g_receiveRank-(.LPIC13+8)
	.word	_ZL13g_receiveRank-(.LPIC14+8)
	.word	.LC7-(.LPIC15+8)
	.word	.LC8-(.LPIC16+8)
	.word	_ZL10g_getScore-(.LPIC17+8)
	.word	_ZL10g_getScore-(.LPIC18+8)
	.word	.LC9-(.LPIC19+8)
	.word	.LC10-(.LPIC20+8)
	.word	_ZL13g_getUserRank-(.LPIC21+8)
	.word	_ZL13g_getUserRank-(.LPIC22+8)
	.word	.LC11-(.LPIC23+8)
	.word	.LC10-(.LPIC24+8)
	.word	_ZL24g_getNextWeekLeftSeconds-(.LPIC25+8)
	.word	_ZL24g_getNextWeekLeftSeconds-(.LPIC26+8)
	.word	.LC12-(.LPIC27+8)
	.word	.LC13-(.LPIC28+8)
	.word	_ZL19g_notUnlimetedLives-(.LPIC29+8)
	.word	_ZL19g_notUnlimetedLives-(.LPIC30+8)
	.word	.LC14-(.LPIC31+8)
	.word	.LC2-(.LPIC32+8)
	.word	_ZL16g_setBeijingTime-(.LPIC33+8)
	.word	_ZL16g_setBeijingTime-(.LPIC34+8)
	.word	.LC15-(.LPIC35+8)
	.word	.LC13-(.LPIC36+8)
	.word	_ZL11g_notShared-(.LPIC37+8)
	.word	_ZL11g_notShared-(.LPIC38+8)
	.word	.LC16-(.LPIC39+8)
	.word	.LC2-(.LPIC40+8)
	.word	_ZL14g_setShareTime-(.LPIC41+8)
	.word	_ZL14g_setShareTime-(.LPIC42+8)
	.word	_ZZ20LihuiLBInit_platformvE7methods-(.LPIC43+8)
	.word	.LC17-(.LPIC44+8)
	.word	.LC17-(.LPIC45+8)
	.word	.LC18-(.LPIC46+8)
	.word	_ZL5g_Obj-(.LPIC47+8)
	.word	.LC19-(.LPIC48+8)
	.word	.LC19-(.LPIC49+8)
	.word	.LC20-(.LPIC50+8)
	.cfi_endproc
.LFE270:
	.size	_Z20LihuiLBInit_platformv, .-_Z20LihuiLBInit_platformv
	.section	.text._Z25LihuiLBTerminate_platformv,"ax",%progbits
	.align	2
	.global	_Z25LihuiLBTerminate_platformv
	.hidden	_Z25LihuiLBTerminate_platformv
	.type	_Z25LihuiLBTerminate_platformv, %function
_Z25LihuiLBTerminate_platformv:
.LFB271:
	.loc 3 130 0
	.cfi_startproc
	@ args = 0, pretend = 0, frame = 0
	@ frame_needed = 0, uses_anonymous_args = 0
	@ link register save eliminated.
	.loc 3 132 0
	bx	lr
	.cfi_endproc
.LFE271:
	.size	_Z25LihuiLBTerminate_platformv, .-_Z25LihuiLBTerminate_platformv
	.section	.text._Z15initLB_platformv,"ax",%progbits
	.align	2
	.global	_Z15initLB_platformv
	.hidden	_Z15initLB_platformv
	.type	_Z15initLB_platformv, %function
_Z15initLB_platformv:
.LFB272:
	.loc 3 135 0
	.cfi_startproc
	@ args = 0, pretend = 0, frame = 8
	@ frame_needed = 0, uses_anonymous_args = 0
	str	lr, [sp, #-4]!
	.cfi_def_cfa_offset 4
	.cfi_offset 14, -4
	sub	sp, sp, #12
	.cfi_def_cfa_offset 16
.LBB9:
	.loc 3 136 0
	bl	_ZL15s3eEdkJNIGetEnvv(PLT)
	str	r0, [sp, #4]
	.loc 3 137 0
	ldr	r3, .L56
.LPIC51:
	add	r3, pc, r3
	ldr	r2, [r3]
	ldr	r3, .L56+4
.LPIC52:
	add	r3, pc, r3
	ldr	r3, [r3]
	ldr	r0, [sp, #4]
	mov	r1, r2
	mov	r2, r3
	bl	_ZN7_JNIEnv14CallVoidMethodEP8_jobjectP10_jmethodIDz(PLT)
.LBE9:
	.loc 3 138 0
	add	sp, sp, #12
	@ sp needed
	ldr	pc, [sp], #4
.L57:
	.align	2
.L56:
	.word	_ZL5g_Obj-(.LPIC51+8)
	.word	_ZL8g_initLB-(.LPIC52+8)
	.cfi_endproc
.LFE272:
	.size	_Z15initLB_platformv, .-_Z15initLB_platformv
	.section	.text._Z20updateScore_platformi,"ax",%progbits
	.align	2
	.global	_Z20updateScore_platformi
	.hidden	_Z20updateScore_platformi
	.type	_Z20updateScore_platformi, %function
_Z20updateScore_platformi:
.LFB273:
	.loc 3 141 0
	.cfi_startproc
	@ args = 0, pretend = 0, frame = 16
	@ frame_needed = 0, uses_anonymous_args = 0
	str	lr, [sp, #-4]!
	.cfi_def_cfa_offset 4
	.cfi_offset 14, -4
	sub	sp, sp, #20
	.cfi_def_cfa_offset 24
	str	r0, [sp, #4]
.LBB10:
	.loc 3 142 0
	bl	_ZL15s3eEdkJNIGetEnvv(PLT)
	str	r0, [sp, #12]
	.loc 3 143 0
	ldr	r3, .L59
.LPIC53:
	add	r3, pc, r3
	ldr	r2, [r3]
	ldr	r3, .L59+4
.LPIC54:
	add	r3, pc, r3
	ldr	r3, [r3]
	ldr	r0, [sp, #12]
	mov	r1, r2
	mov	r2, r3
	ldr	r3, [sp, #4]
	bl	_ZN7_JNIEnv14CallVoidMethodEP8_jobjectP10_jmethodIDz(PLT)
.LBE10:
	.loc 3 144 0
	add	sp, sp, #20
	@ sp needed
	ldr	pc, [sp], #4
.L60:
	.align	2
.L59:
	.word	_ZL5g_Obj-(.LPIC53+8)
	.word	_ZL13g_updateScore-(.LPIC54+8)
	.cfi_endproc
.LFE273:
	.size	_Z20updateScore_platformi, .-_Z20updateScore_platformi
	.section	.text._Z20receiveRank_platformv,"ax",%progbits
	.align	2
	.global	_Z20receiveRank_platformv
	.hidden	_Z20receiveRank_platformv
	.type	_Z20receiveRank_platformv, %function
_Z20receiveRank_platformv:
.LFB274:
	.loc 3 147 0
	.cfi_startproc
	@ args = 0, pretend = 0, frame = 8
	@ frame_needed = 0, uses_anonymous_args = 0
	str	lr, [sp, #-4]!
	.cfi_def_cfa_offset 4
	.cfi_offset 14, -4
	sub	sp, sp, #12
	.cfi_def_cfa_offset 16
.LBB11:
	.loc 3 148 0
	bl	_ZL15s3eEdkJNIGetEnvv(PLT)
	str	r0, [sp, #4]
	.loc 3 149 0
	ldr	r3, .L62
.LPIC55:
	add	r3, pc, r3
	ldr	r2, [r3]
	ldr	r3, .L62+4
.LPIC56:
	add	r3, pc, r3
	ldr	r3, [r3]
	ldr	r0, [sp, #4]
	mov	r1, r2
	mov	r2, r3
	bl	_ZN7_JNIEnv14CallVoidMethodEP8_jobjectP10_jmethodIDz(PLT)
.LBE11:
	.loc 3 150 0
	add	sp, sp, #12
	@ sp needed
	ldr	pc, [sp], #4
.L63:
	.align	2
.L62:
	.word	_ZL5g_Obj-(.LPIC55+8)
	.word	_ZL13g_receiveRank-(.LPIC56+8)
	.cfi_endproc
.LFE274:
	.size	_Z20receiveRank_platformv, .-_Z20receiveRank_platformv
	.section	.text._Z17getScore_platformi,"ax",%progbits
	.align	2
	.global	_Z17getScore_platformi
	.hidden	_Z17getScore_platformi
	.type	_Z17getScore_platformi, %function
_Z17getScore_platformi:
.LFB275:
	.loc 3 153 0
	.cfi_startproc
	@ args = 0, pretend = 0, frame = 16
	@ frame_needed = 0, uses_anonymous_args = 0
	str	lr, [sp, #-4]!
	.cfi_def_cfa_offset 4
	.cfi_offset 14, -4
	sub	sp, sp, #20
	.cfi_def_cfa_offset 24
	str	r0, [sp, #4]
.LBB12:
	.loc 3 154 0
	bl	_ZL15s3eEdkJNIGetEnvv(PLT)
	str	r0, [sp, #12]
	.loc 3 155 0
	ldr	r3, .L66
.LPIC57:
	add	r3, pc, r3
	ldr	r2, [r3]
	ldr	r3, .L66+4
.LPIC58:
	add	r3, pc, r3
	ldr	r3, [r3]
	ldr	r0, [sp, #12]
	mov	r1, r2
	mov	r2, r3
	ldr	r3, [sp, #4]
	bl	_ZN7_JNIEnv13CallIntMethodEP8_jobjectP10_jmethodIDz(PLT)
	mov	r3, r0
.LBE12:
	.loc 3 156 0
	mov	r0, r3
	add	sp, sp, #20
	@ sp needed
	ldr	pc, [sp], #4
.L67:
	.align	2
.L66:
	.word	_ZL5g_Obj-(.LPIC57+8)
	.word	_ZL10g_getScore-(.LPIC58+8)
	.cfi_endproc
.LFE275:
	.size	_Z17getScore_platformi, .-_Z17getScore_platformi
	.section	.text._Z20getUserRank_platformv,"ax",%progbits
	.align	2
	.global	_Z20getUserRank_platformv
	.hidden	_Z20getUserRank_platformv
	.type	_Z20getUserRank_platformv, %function
_Z20getUserRank_platformv:
.LFB276:
	.loc 3 159 0
	.cfi_startproc
	@ args = 0, pretend = 0, frame = 8
	@ frame_needed = 0, uses_anonymous_args = 0
	str	lr, [sp, #-4]!
	.cfi_def_cfa_offset 4
	.cfi_offset 14, -4
	sub	sp, sp, #12
	.cfi_def_cfa_offset 16
.LBB13:
	.loc 3 160 0
	bl	_ZL15s3eEdkJNIGetEnvv(PLT)
	str	r0, [sp, #4]
	.loc 3 161 0
	ldr	r3, .L70
.LPIC59:
	add	r3, pc, r3
	ldr	r2, [r3]
	ldr	r3, .L70+4
.LPIC60:
	add	r3, pc, r3
	ldr	r3, [r3]
	ldr	r0, [sp, #4]
	mov	r1, r2
	mov	r2, r3
	bl	_ZN7_JNIEnv13CallIntMethodEP8_jobjectP10_jmethodIDz(PLT)
	mov	r3, r0
.LBE13:
	.loc 3 162 0
	mov	r0, r3
	add	sp, sp, #12
	@ sp needed
	ldr	pc, [sp], #4
.L71:
	.align	2
.L70:
	.word	_ZL5g_Obj-(.LPIC59+8)
	.word	_ZL13g_getUserRank-(.LPIC60+8)
	.cfi_endproc
.LFE276:
	.size	_Z20getUserRank_platformv, .-_Z20getUserRank_platformv
	.section	.text._Z31getNextWeekLeftSeconds_platformv,"ax",%progbits
	.align	2
	.global	_Z31getNextWeekLeftSeconds_platformv
	.hidden	_Z31getNextWeekLeftSeconds_platformv
	.type	_Z31getNextWeekLeftSeconds_platformv, %function
_Z31getNextWeekLeftSeconds_platformv:
.LFB277:
	.loc 3 165 0
	.cfi_startproc
	@ args = 0, pretend = 0, frame = 8
	@ frame_needed = 0, uses_anonymous_args = 0
	str	lr, [sp, #-4]!
	.cfi_def_cfa_offset 4
	.cfi_offset 14, -4
	sub	sp, sp, #12
	.cfi_def_cfa_offset 16
.LBB14:
	.loc 3 166 0
	bl	_ZL15s3eEdkJNIGetEnvv(PLT)
	str	r0, [sp, #4]
	.loc 3 167 0
	ldr	r3, .L74
.LPIC61:
	add	r3, pc, r3
	ldr	r2, [r3]
	ldr	r3, .L74+4
.LPIC62:
	add	r3, pc, r3
	ldr	r3, [r3]
	ldr	r0, [sp, #4]
	mov	r1, r2
	mov	r2, r3
	bl	_ZN7_JNIEnv13CallIntMethodEP8_jobjectP10_jmethodIDz(PLT)
	mov	r3, r0
.LBE14:
	.loc 3 168 0
	mov	r0, r3
	add	sp, sp, #12
	@ sp needed
	ldr	pc, [sp], #4
.L75:
	.align	2
.L74:
	.word	_ZL5g_Obj-(.LPIC61+8)
	.word	_ZL24g_getNextWeekLeftSeconds-(.LPIC62+8)
	.cfi_endproc
.LFE277:
	.size	_Z31getNextWeekLeftSeconds_platformv, .-_Z31getNextWeekLeftSeconds_platformv
	.section	.text._Z26notUnlimetedLives_platformv,"ax",%progbits
	.align	2
	.global	_Z26notUnlimetedLives_platformv
	.hidden	_Z26notUnlimetedLives_platformv
	.type	_Z26notUnlimetedLives_platformv, %function
_Z26notUnlimetedLives_platformv:
.LFB278:
	.loc 3 171 0
	.cfi_startproc
	@ args = 0, pretend = 0, frame = 8
	@ frame_needed = 0, uses_anonymous_args = 0
	str	lr, [sp, #-4]!
	.cfi_def_cfa_offset 4
	.cfi_offset 14, -4
	sub	sp, sp, #12
	.cfi_def_cfa_offset 16
.LBB15:
	.loc 3 172 0
	bl	_ZL15s3eEdkJNIGetEnvv(PLT)
	str	r0, [sp, #4]
	.loc 3 173 0
	ldr	r3, .L78
.LPIC63:
	add	r3, pc, r3
	ldr	r2, [r3]
	ldr	r3, .L78+4
.LPIC64:
	add	r3, pc, r3
	ldr	r3, [r3]
	ldr	r0, [sp, #4]
	mov	r1, r2
	mov	r2, r3
	bl	_ZN7_JNIEnv17CallBooleanMethodEP8_jobjectP10_jmethodIDz(PLT)
	mov	r3, r0
	cmp	r3, #0
	moveq	r3, #0
	movne	r3, #1
	and	r3, r3, #255
.LBE15:
	.loc 3 174 0
	mov	r0, r3
	add	sp, sp, #12
	@ sp needed
	ldr	pc, [sp], #4
.L79:
	.align	2
.L78:
	.word	_ZL5g_Obj-(.LPIC63+8)
	.word	_ZL19g_notUnlimetedLives-(.LPIC64+8)
	.cfi_endproc
.LFE278:
	.size	_Z26notUnlimetedLives_platformv, .-_Z26notUnlimetedLives_platformv
	.section	.text._Z23setBeijingTime_platformv,"ax",%progbits
	.align	2
	.global	_Z23setBeijingTime_platformv
	.hidden	_Z23setBeijingTime_platformv
	.type	_Z23setBeijingTime_platformv, %function
_Z23setBeijingTime_platformv:
.LFB279:
	.loc 3 177 0
	.cfi_startproc
	@ args = 0, pretend = 0, frame = 8
	@ frame_needed = 0, uses_anonymous_args = 0
	str	lr, [sp, #-4]!
	.cfi_def_cfa_offset 4
	.cfi_offset 14, -4
	sub	sp, sp, #12
	.cfi_def_cfa_offset 16
.LBB16:
	.loc 3 178 0
	bl	_ZL15s3eEdkJNIGetEnvv(PLT)
	str	r0, [sp, #4]
	.loc 3 179 0
	ldr	r3, .L81
.LPIC65:
	add	r3, pc, r3
	ldr	r2, [r3]
	ldr	r3, .L81+4
.LPIC66:
	add	r3, pc, r3
	ldr	r3, [r3]
	ldr	r0, [sp, #4]
	mov	r1, r2
	mov	r2, r3
	bl	_ZN7_JNIEnv14CallVoidMethodEP8_jobjectP10_jmethodIDz(PLT)
.LBE16:
	.loc 3 180 0
	add	sp, sp, #12
	@ sp needed
	ldr	pc, [sp], #4
.L82:
	.align	2
.L81:
	.word	_ZL5g_Obj-(.LPIC65+8)
	.word	_ZL16g_setBeijingTime-(.LPIC66+8)
	.cfi_endproc
.LFE279:
	.size	_Z23setBeijingTime_platformv, .-_Z23setBeijingTime_platformv
	.section	.text._Z18notShared_platformv,"ax",%progbits
	.align	2
	.global	_Z18notShared_platformv
	.hidden	_Z18notShared_platformv
	.type	_Z18notShared_platformv, %function
_Z18notShared_platformv:
.LFB280:
	.loc 3 183 0
	.cfi_startproc
	@ args = 0, pretend = 0, frame = 8
	@ frame_needed = 0, uses_anonymous_args = 0
	str	lr, [sp, #-4]!
	.cfi_def_cfa_offset 4
	.cfi_offset 14, -4
	sub	sp, sp, #12
	.cfi_def_cfa_offset 16
.LBB17:
	.loc 3 184 0
	bl	_ZL15s3eEdkJNIGetEnvv(PLT)
	str	r0, [sp, #4]
	.loc 3 185 0
	ldr	r3, .L85
.LPIC67:
	add	r3, pc, r3
	ldr	r2, [r3]
	ldr	r3, .L85+4
.LPIC68:
	add	r3, pc, r3
	ldr	r3, [r3]
	ldr	r0, [sp, #4]
	mov	r1, r2
	mov	r2, r3
	bl	_ZN7_JNIEnv17CallBooleanMethodEP8_jobjectP10_jmethodIDz(PLT)
	mov	r3, r0
	cmp	r3, #0
	moveq	r3, #0
	movne	r3, #1
	and	r3, r3, #255
.LBE17:
	.loc 3 186 0
	mov	r0, r3
	add	sp, sp, #12
	@ sp needed
	ldr	pc, [sp], #4
.L86:
	.align	2
.L85:
	.word	_ZL5g_Obj-(.LPIC67+8)
	.word	_ZL11g_notShared-(.LPIC68+8)
	.cfi_endproc
.LFE280:
	.size	_Z18notShared_platformv, .-_Z18notShared_platformv
	.section	.text._Z21setShareTime_platformv,"ax",%progbits
	.align	2
	.global	_Z21setShareTime_platformv
	.hidden	_Z21setShareTime_platformv
	.type	_Z21setShareTime_platformv, %function
_Z21setShareTime_platformv:
.LFB281:
	.loc 3 189 0
	.cfi_startproc
	@ args = 0, pretend = 0, frame = 8
	@ frame_needed = 0, uses_anonymous_args = 0
	str	lr, [sp, #-4]!
	.cfi_def_cfa_offset 4
	.cfi_offset 14, -4
	sub	sp, sp, #12
	.cfi_def_cfa_offset 16
.LBB18:
	.loc 3 190 0
	bl	_ZL15s3eEdkJNIGetEnvv(PLT)
	str	r0, [sp, #4]
	.loc 3 191 0
	ldr	r3, .L88
.LPIC69:
	add	r3, pc, r3
	ldr	r2, [r3]
	ldr	r3, .L88+4
.LPIC70:
	add	r3, pc, r3
	ldr	r3, [r3]
	ldr	r0, [sp, #4]
	mov	r1, r2
	mov	r2, r3
	bl	_ZN7_JNIEnv14CallVoidMethodEP8_jobjectP10_jmethodIDz(PLT)
.LBE18:
	.loc 3 192 0
	add	sp, sp, #12
	@ sp needed
	ldr	pc, [sp], #4
.L89:
	.align	2
.L88:
	.word	_ZL5g_Obj-(.LPIC69+8)
	.word	_ZL14g_setShareTime-(.LPIC70+8)
	.cfi_endproc
.LFE281:
	.size	_Z21setShareTime_platformv, .-_Z21setShareTime_platformv
	.section	.text._Z34LihuiLB_Receive_SuccessfulCallbackP7_JNIEnvP8_jobjectP8_jstring,"ax",%progbits
	.align	2
	.global	_Z34LihuiLB_Receive_SuccessfulCallbackP7_JNIEnvP8_jobjectP8_jstring
	.hidden	_Z34LihuiLB_Receive_SuccessfulCallbackP7_JNIEnvP8_jobjectP8_jstring
	.type	_Z34LihuiLB_Receive_SuccessfulCallbackP7_JNIEnvP8_jobjectP8_jstring, %function
_Z34LihuiLB_Receive_SuccessfulCallbackP7_JNIEnvP8_jobjectP8_jstring:
.LFB282:
	.loc 3 194 0
	.cfi_startproc
	@ args = 0, pretend = 0, frame = 32
	@ frame_needed = 0, uses_anonymous_args = 0
	str	lr, [sp, #-4]!
	.cfi_def_cfa_offset 4
	.cfi_offset 14, -4
	sub	sp, sp, #52
	.cfi_def_cfa_offset 56
	str	r0, [sp, #28]
	str	r1, [sp, #24]
	str	r2, [sp, #20]
.LBB19:
	.loc 3 195 0
	ldr	r0, [sp, #28]
	ldr	r1, [sp, #20]
	mov	r2, #0
	bl	_ZN7_JNIEnv17GetStringUTFCharsEP8_jstringPh(PLT)
	str	r0, [sp, #44]
	.loc 3 196 0
	ldr	r0, [sp, #28]
	ldr	r1, [sp, #20]
	bl	_ZN7_JNIEnv15GetStringLengthEP8_jstring(PLT)
	str	r0, [sp, #40]
	.loc 3 198 0
	ldr	r3, [sp, #40]
	add	r3, r3, #1
	mov	r0, r3
	bl	_Znaj(PLT)
	str	r0, [sp, #36]
	.loc 3 199 0
	ldr	r3, [sp, #40]
	add	r3, r3, #1
	ldr	r0, [sp, #36]
	ldr	r1, [sp, #44]
	mov	r2, r3
	bl	memcpy(PLT)
	.loc 3 201 0
	ldr	r0, [sp, #28]
	ldr	r1, [sp, #20]
	ldr	r2, [sp, #44]
	bl	_ZN7_JNIEnv21ReleaseStringUTFCharsEP8_jstringPKc(PLT)
	.loc 3 204 0
	ldr	r3, [sp, #40]
	add	r3, r3, #1
	mov	r2, #0
	str	r2, [sp]
	mov	r2, #0
	str	r2, [sp, #4]
	mov	r2, #0
	str	r2, [sp, #8]
	mov	r2, #0
	str	r2, [sp, #12]
	ldr	r0, .L91
	mov	r1, #0
	ldr	r2, [sp, #36]
	bl	s3eEdkCallbacksEnqueue(PLT)
.LBE19:
	.loc 3 205 0
	add	sp, sp, #52
	@ sp needed
	ldr	pc, [sp], #4
.L92:
	.align	2
.L91:
	.word	2044383886
	.cfi_endproc
.LFE282:
	.size	_Z34LihuiLB_Receive_SuccessfulCallbackP7_JNIEnvP8_jobjectP8_jstring, .-_Z34LihuiLB_Receive_SuccessfulCallbackP7_JNIEnvP8_jobjectP8_jstring
	.section	.text._Z30LihuiLB_Receive_FailedCallbackP7_JNIEnvP8_jobjectP8_jstring,"ax",%progbits
	.align	2
	.global	_Z30LihuiLB_Receive_FailedCallbackP7_JNIEnvP8_jobjectP8_jstring
	.hidden	_Z30LihuiLB_Receive_FailedCallbackP7_JNIEnvP8_jobjectP8_jstring
	.type	_Z30LihuiLB_Receive_FailedCallbackP7_JNIEnvP8_jobjectP8_jstring, %function
_Z30LihuiLB_Receive_FailedCallbackP7_JNIEnvP8_jobjectP8_jstring:
.LFB283:
	.loc 3 208 0
	.cfi_startproc
	@ args = 0, pretend = 0, frame = 32
	@ frame_needed = 0, uses_anonymous_args = 0
	str	lr, [sp, #-4]!
	.cfi_def_cfa_offset 4
	.cfi_offset 14, -4
	sub	sp, sp, #52
	.cfi_def_cfa_offset 56
	str	r0, [sp, #28]
	str	r1, [sp, #24]
	str	r2, [sp, #20]
.LBB20:
	.loc 3 209 0
	ldr	r0, [sp, #28]
	ldr	r1, [sp, #20]
	mov	r2, #0
	bl	_ZN7_JNIEnv17GetStringUTFCharsEP8_jstringPh(PLT)
	str	r0, [sp, #44]
	.loc 3 210 0
	ldr	r0, [sp, #28]
	ldr	r1, [sp, #20]
	bl	_ZN7_JNIEnv15GetStringLengthEP8_jstring(PLT)
	str	r0, [sp, #40]
	.loc 3 212 0
	ldr	r3, [sp, #40]
	add	r3, r3, #1
	mov	r0, r3
	bl	_Znaj(PLT)
	str	r0, [sp, #36]
	.loc 3 213 0
	ldr	r3, [sp, #40]
	add	r3, r3, #1
	ldr	r0, [sp, #36]
	ldr	r1, [sp, #44]
	mov	r2, r3
	bl	memcpy(PLT)
	.loc 3 215 0
	ldr	r0, [sp, #28]
	ldr	r1, [sp, #20]
	ldr	r2, [sp, #44]
	bl	_ZN7_JNIEnv21ReleaseStringUTFCharsEP8_jstringPKc(PLT)
	.loc 3 218 0
	ldr	r3, [sp, #40]
	add	r3, r3, #1
	mov	r2, #0
	str	r2, [sp]
	mov	r2, #0
	str	r2, [sp, #4]
	mov	r2, #0
	str	r2, [sp, #8]
	mov	r2, #0
	str	r2, [sp, #12]
	ldr	r0, .L94
	mov	r1, #1
	ldr	r2, [sp, #36]
	bl	s3eEdkCallbacksEnqueue(PLT)
.LBE20:
	.loc 3 219 0
	add	sp, sp, #52
	@ sp needed
	ldr	pc, [sp], #4
.L95:
	.align	2
.L94:
	.word	2044383886
	.cfi_endproc
.LFE283:
	.size	_Z30LihuiLB_Receive_FailedCallbackP7_JNIEnvP8_jobjectP8_jstring, .-_Z30LihuiLB_Receive_FailedCallbackP7_JNIEnvP8_jobjectP8_jstring
	.section	.text._Z33LihuiLB_Update_SuccessfulCallbackP7_JNIEnvP8_jobjectP8_jstring,"ax",%progbits
	.align	2
	.global	_Z33LihuiLB_Update_SuccessfulCallbackP7_JNIEnvP8_jobjectP8_jstring
	.hidden	_Z33LihuiLB_Update_SuccessfulCallbackP7_JNIEnvP8_jobjectP8_jstring
	.type	_Z33LihuiLB_Update_SuccessfulCallbackP7_JNIEnvP8_jobjectP8_jstring, %function
_Z33LihuiLB_Update_SuccessfulCallbackP7_JNIEnvP8_jobjectP8_jstring:
.LFB284:
	.loc 3 222 0
	.cfi_startproc
	@ args = 0, pretend = 0, frame = 32
	@ frame_needed = 0, uses_anonymous_args = 0
	str	lr, [sp, #-4]!
	.cfi_def_cfa_offset 4
	.cfi_offset 14, -4
	sub	sp, sp, #52
	.cfi_def_cfa_offset 56
	str	r0, [sp, #28]
	str	r1, [sp, #24]
	str	r2, [sp, #20]
.LBB21:
	.loc 3 223 0
	ldr	r0, [sp, #28]
	ldr	r1, [sp, #20]
	mov	r2, #0
	bl	_ZN7_JNIEnv17GetStringUTFCharsEP8_jstringPh(PLT)
	str	r0, [sp, #44]
	.loc 3 224 0
	ldr	r0, [sp, #28]
	ldr	r1, [sp, #20]
	bl	_ZN7_JNIEnv15GetStringLengthEP8_jstring(PLT)
	str	r0, [sp, #40]
	.loc 3 226 0
	ldr	r3, [sp, #40]
	add	r3, r3, #1
	mov	r0, r3
	bl	_Znaj(PLT)
	str	r0, [sp, #36]
	.loc 3 227 0
	ldr	r3, [sp, #40]
	add	r3, r3, #1
	ldr	r0, [sp, #36]
	ldr	r1, [sp, #44]
	mov	r2, r3
	bl	memcpy(PLT)
	.loc 3 229 0
	ldr	r0, [sp, #28]
	ldr	r1, [sp, #20]
	ldr	r2, [sp, #44]
	bl	_ZN7_JNIEnv21ReleaseStringUTFCharsEP8_jstringPKc(PLT)
	.loc 3 232 0
	ldr	r3, [sp, #40]
	add	r3, r3, #1
	mov	r2, #0
	str	r2, [sp]
	mov	r2, #0
	str	r2, [sp, #4]
	mov	r2, #0
	str	r2, [sp, #8]
	mov	r2, #0
	str	r2, [sp, #12]
	ldr	r0, .L97
	mov	r1, #2
	ldr	r2, [sp, #36]
	bl	s3eEdkCallbacksEnqueue(PLT)
.LBE21:
	.loc 3 233 0
	add	sp, sp, #52
	@ sp needed
	ldr	pc, [sp], #4
.L98:
	.align	2
.L97:
	.word	2044383886
	.cfi_endproc
.LFE284:
	.size	_Z33LihuiLB_Update_SuccessfulCallbackP7_JNIEnvP8_jobjectP8_jstring, .-_Z33LihuiLB_Update_SuccessfulCallbackP7_JNIEnvP8_jobjectP8_jstring
	.section	.text._Z29LihuiLB_Update_FailedCallbackP7_JNIEnvP8_jobjectP8_jstring,"ax",%progbits
	.align	2
	.global	_Z29LihuiLB_Update_FailedCallbackP7_JNIEnvP8_jobjectP8_jstring
	.hidden	_Z29LihuiLB_Update_FailedCallbackP7_JNIEnvP8_jobjectP8_jstring
	.type	_Z29LihuiLB_Update_FailedCallbackP7_JNIEnvP8_jobjectP8_jstring, %function
_Z29LihuiLB_Update_FailedCallbackP7_JNIEnvP8_jobjectP8_jstring:
.LFB285:
	.loc 3 236 0
	.cfi_startproc
	@ args = 0, pretend = 0, frame = 32
	@ frame_needed = 0, uses_anonymous_args = 0
	str	lr, [sp, #-4]!
	.cfi_def_cfa_offset 4
	.cfi_offset 14, -4
	sub	sp, sp, #52
	.cfi_def_cfa_offset 56
	str	r0, [sp, #28]
	str	r1, [sp, #24]
	str	r2, [sp, #20]
.LBB22:
	.loc 3 237 0
	ldr	r0, [sp, #28]
	ldr	r1, [sp, #20]
	mov	r2, #0
	bl	_ZN7_JNIEnv17GetStringUTFCharsEP8_jstringPh(PLT)
	str	r0, [sp, #44]
	.loc 3 238 0
	ldr	r0, [sp, #28]
	ldr	r1, [sp, #20]
	bl	_ZN7_JNIEnv15GetStringLengthEP8_jstring(PLT)
	str	r0, [sp, #40]
	.loc 3 240 0
	ldr	r3, [sp, #40]
	add	r3, r3, #1
	mov	r0, r3
	bl	_Znaj(PLT)
	str	r0, [sp, #36]
	.loc 3 241 0
	ldr	r3, [sp, #40]
	add	r3, r3, #1
	ldr	r0, [sp, #36]
	ldr	r1, [sp, #44]
	mov	r2, r3
	bl	memcpy(PLT)
	.loc 3 243 0
	ldr	r0, [sp, #28]
	ldr	r1, [sp, #20]
	ldr	r2, [sp, #44]
	bl	_ZN7_JNIEnv21ReleaseStringUTFCharsEP8_jstringPKc(PLT)
	.loc 3 246 0
	ldr	r3, [sp, #40]
	add	r3, r3, #1
	mov	r2, #0
	str	r2, [sp]
	mov	r2, #0
	str	r2, [sp, #4]
	mov	r2, #0
	str	r2, [sp, #8]
	mov	r2, #0
	str	r2, [sp, #12]
	ldr	r0, .L100
	mov	r1, #3
	ldr	r2, [sp, #36]
	bl	s3eEdkCallbacksEnqueue(PLT)
.LBE22:
	.loc 3 247 0
	add	sp, sp, #52
	@ sp needed
	ldr	pc, [sp], #4
.L101:
	.align	2
.L100:
	.word	2044383886
	.cfi_endproc
.LFE285:
	.size	_Z29LihuiLB_Update_FailedCallbackP7_JNIEnvP8_jobjectP8_jstring, .-_Z29LihuiLB_Update_FailedCallbackP7_JNIEnvP8_jobjectP8_jstring
	.section	.rodata
	.align	2
.LC21:
	.ascii	"LihuiLBReceiveSuccessful\000"
	.align	2
.LC22:
	.ascii	"(Ljava/lang/String;)V\000"
	.align	2
.LC23:
	.ascii	"LihuiLBReceiveFailedCallback\000"
	.align	2
.LC24:
	.ascii	"LihuiLBUpdateSuccessfulCallback\000"
	.align	2
.LC25:
	.ascii	"LihuiLBUpdateFailedCallback\000"
	.section	.data.rel.ro,"aw",%progbits
	.align	2
	.type	_ZZ20LihuiLBInit_platformvE7methods, %object
	.size	_ZZ20LihuiLBInit_platformvE7methods, 48
_ZZ20LihuiLBInit_platformvE7methods:
	.word	.LC21
	.word	.LC22
	.word	_Z34LihuiLB_Receive_SuccessfulCallbackP7_JNIEnvP8_jobjectP8_jstring
	.word	.LC23
	.word	.LC22
	.word	_Z30LihuiLB_Receive_FailedCallbackP7_JNIEnvP8_jobjectP8_jstring
	.word	.LC24
	.word	.LC22
	.word	_Z33LihuiLB_Update_SuccessfulCallbackP7_JNIEnvP8_jobjectP8_jstring
	.word	.LC25
	.word	.LC22
	.word	_Z29LihuiLB_Update_FailedCallbackP7_JNIEnvP8_jobjectP8_jstring
	.text
.Letext0:
	.file 4 "e:/marmalade/7.0/s3e/h/s3eTypes.h"
	.file 5 "../h/LihuiLB.h"
	.file 6 "d:\\users\\android-ndk-r9\\toolchains\\arm-linux-androideabi-4.8\\prebuilt\\windows-x86_64\\lib\\gcc\\arm-linux-androideabi\\4.8\\include\\stdarg.h"
	.file 7 "<built-in>"
	.section	.note.GNU-stack,"",%progbits
